Certificate:
    Data:
        Version: 1 (0x0)
        Serial Number: 18 (0x12)
    Signature Algorithm: md5WithRSAEncryption
        Issuer: O=NOVA ROOT, L=Mountain View, ST=California, C=US
        Validity
            Not Before: Oct 20 18:49:47 2014 GMT
            Not After : Oct 20 18:49:47 2015 GMT
        Subject: C=US, ST=California, O=OpenStack, OU=NovaDev, CN=6dbf5f1aaf6e467c-106cdeff30eb4054-2014-10-20T18:49:47Z
        Subject Public Key Info:
            Public Key Algorithm: rsaEncryption
                Public-Key: (1024 bit)
                Modulus:
                    00:a0:1d:1e:77:6c:68:e4:fe:89:f9:88:2d:81:58:
                    ab:b1:9b:89:dc:8f:b5:e8:bb:4f:1c:f6:90:46:dc:
                    f5:40:54:f0:95:d2:53:9d:27:6f:a9:eb:2c:43:ad:
                    ee:d9:26:01:f3:16:dd:ba:08:fc:64:0d:b1:a4:d4:
                    97:c4:86:29:de:0a:1f:e0:07:57:6d:e5:33:05:43:
                    27:c5:67:84:81:ee:1f:5a:52:77:88:15:21:d8:e6:
                    a2:d0:86:c4:06:08:dc:d8:a3:7c:64:33:a8:5e:c7:
                    96:77:a4:bb:6a:36:51:e3:5b:f6:10:cc:3e:7c:12:
                    86:bc:73:c0:65:25:30:e9:7f
                Exponent: 65537 (0x10001)
    Signature Algorithm: md5WithRSAEncryption
         a6:d1:8a:24:ac:9c:4f:9a:f7:a4:e5:45:f4:c4:11:95:c5:77:
         d8:6b:d8:9f:5c:d9:66:63:12:97:cd:73:37:65:f6:d0:31:a8:
         c3:9b:26:ff:77:4c:9b:4e:a5:66:11:52:24:d7:1c:9b:d5:bb:
         17:65:87:3f:d1:46:a0:8e:9e:13:5b:cf:83:a0:dc:8d:f6:58:
         d7:88:1d:85:45:b4:74:8b:c7:fd:03:bc:a4:17:0d:cd:77:03:
         d6:e5:4e:13:f8:bf:6e:f0:c8:28:d7:ed:56:98:fe:f6:d9:90:
         0f:f3:77:d8:0f:bd:1b:0f:23:8d:20:56:e4:37:e3:a2:ab:ee:
         14:db
-----BEGIN CERTIFICATE-----
MIICRzCCAbACARIwDQYJKoZIhvcNAQEEBQAwTjESMBAGA1UEChMJTk9WQSBST09U
MRYwFAYDVQQHEw1Nb3VudGFpbiBWaWV3MRMwEQYDVQQIEwpDYWxpZm9ybmlhMQsw
CQYDVQQGEwJVUzAeFw0xNDEwMjAxODQ5NDdaFw0xNTEwMjAxODQ5NDdaMIGJMQsw
CQYDVQQGEwJVUzETMBEGA1UECAwKQ2FsaWZvcm5pYTESMBAGA1UECgwJT3BlblN0
YWNrMRAwDgYDVQQLDAdOb3ZhRGV2MT8wPQYDVQQDDDY2ZGJmNWYxYWFmNmU0Njdj
LTEwNmNkZWZmMzBlYjQwNTQtMjAxNC0xMC0yMFQxODo0OTo0N1owgZ8wDQYJKoZI
hvcNAQEBBQADgY0AMIGJAoGBAKAdHndsaOT+ifmILYFYq7GbidyPtei7Txz2kEbc
9UBU8JXSU50nb6nrLEOt7tkmAfMW3boI/GQNsaTUl8SGKd4KH+AHV23lMwVDJ8Vn
hIHuH1pSd4gVIdjmotCGxAYI3NijfGQzqF7Hlneku2o2UeNb9hDMPnwShrxzwGUl
MOl/AgMBAAEwDQYJKoZIhvcNAQEEBQADgYEAptGKJKycT5r3pOVF9MQRlcV32GvY
n1zZZmMSl81zN2X20DGow5sm/3dMm06lZhFSJNccm9W7F2WHP9FGoI6eE1vPg6Dc
jfZY14gdhUW0dIvH/QO8pBcNzXcD1uVOE/i/bvDIKNftVpj+9tmQD/N32A+9Gw8j
jSBW5DfjoqvuFNs=
-----END CERTIFICATE-----
