Certificate:
    Data:
        Version: 1 (0x0)
        Serial Number: 16 (0x10)
    Signature Algorithm: md5WithRSAEncryption
        Issuer: O=NOVA ROOT, L=Mountain View, ST=California, C=US
        Validity
            Not Before: Oct 20 18:49:42 2014 GMT
            Not After : Oct 20 18:49:42 2015 GMT
        Subject: C=US, ST=California, O=OpenStack, OU=NovaDev, CN=d52fe0fb70ae4ad5-106cdeff30eb4054-2014-10-20T18:49:42Z
        Subject Public Key Info:
            Public Key Algorithm: rsaEncryption
                Public-Key: (1024 bit)
                Modulus:
                    00:c8:20:13:f6:fd:91:1f:8d:bd:94:67:7f:f1:c6:
                    d4:5d:50:d4:f2:ca:5c:90:3d:e1:03:15:fe:71:80:
                    c4:f8:b8:51:49:c9:e1:0e:f0:bc:5d:25:45:95:d6:
                    b5:54:01:fb:3d:02:81:7d:d4:c8:db:26:83:e3:a5:
                    25:ce:19:05:1e:1e:5d:f5:c4:7c:1c:c3:a6:22:0d:
                    cb:8a:5d:8b:a5:01:1c:1b:ab:11:dc:df:62:74:19:
                    10:4d:61:cd:79:f0:10:2e:12:c3:a6:4f:83:1e:2f:
                    17:df:cd:14:fa:a7:e9:e6:34:ea:92:0e:97:32:29:
                    c6:1f:f5:25:58:0d:99:d2:69
                Exponent: 65537 (0x10001)
    Signature Algorithm: md5WithRSAEncryption
         28:fb:e7:5a:2e:57:34:52:92:ef:96:0f:c8:4f:c5:4e:15:47:
         1b:5b:68:1c:57:a0:40:64:14:53:f4:10:eb:4e:da:73:c1:a3:
         3e:30:f6:8f:34:01:b8:7e:e7:ba:2a:37:22:a4:9a:df:55:f2:
         40:95:72:c1:4e:f8:e9:2b:85:a2:80:f9:9c:ba:79:71:1a:7d:
         19:79:27:74:d6:d3:c5:b9:7a:cb:1a:25:68:8d:48:ba:8e:12:
         fd:0a:58:83:c0:39:57:06:05:f7:2e:f6:dd:69:d4:dd:04:24:
         e2:cd:df:6e:96:45:58:0b:63:6b:57:ad:f8:63:98:bb:61:09:
         cd:bb
-----BEGIN CERTIFICATE-----
MIICRzCCAbACARAwDQYJKoZIhvcNAQEEBQAwTjESMBAGA1UEChMJTk9WQSBST09U
MRYwFAYDVQQHEw1Nb3VudGFpbiBWaWV3MRMwEQYDVQQIEwpDYWxpZm9ybmlhMQsw
CQYDVQQGEwJVUzAeFw0xNDEwMjAxODQ5NDJaFw0xNTEwMjAxODQ5NDJaMIGJMQsw
CQYDVQQGEwJVUzETMBEGA1UECAwKQ2FsaWZvcm5pYTESMBAGA1UECgwJT3BlblN0
YWNrMRAwDgYDVQQLDAdOb3ZhRGV2MT8wPQYDVQQDDDZkNTJmZTBmYjcwYWU0YWQ1
LTEwNmNkZWZmMzBlYjQwNTQtMjAxNC0xMC0yMFQxODo0OTo0MlowgZ8wDQYJKoZI
hvcNAQEBBQADgY0AMIGJAoGBAMggE/b9kR+NvZRnf/HG1F1Q1PLKXJA94QMV/nGA
xPi4UUnJ4Q7wvF0lRZXWtVQB+z0CgX3UyNsmg+OlJc4ZBR4eXfXEfBzDpiINy4pd
i6UBHBurEdzfYnQZEE1hzXnwEC4Sw6ZPgx4vF9/NFPqn6eY06pIOlzIpxh/1JVgN
mdJpAgMBAAEwDQYJKoZIhvcNAQEEBQADgYEAKPvnWi5XNFKS75YPyE/FThVHG1to
HFegQGQUU/QQ607ac8GjPjD2jzQBuH7nuio3IqSa31XyQJVywU746SuFooD5nLp5
cRp9GXkndNbTxbl6yxolaI1Iuo4S/QpYg8A5VwYF9y723WnU3QQk4s3fbpZFWAtj
a1et+GOYu2EJzbs=
-----END CERTIFICATE-----
