Certificate:
    Data:
        Version: 1 (0x0)
        Serial Number: 17 (0x11)
    Signature Algorithm: md5WithRSAEncryption
        Issuer: O=NOVA ROOT, L=Mountain View, ST=California, C=US
        Validity
            Not Before: Oct 20 18:49:44 2014 GMT
            Not After : Oct 20 18:49:44 2015 GMT
        Subject: C=US, ST=California, O=OpenStack, OU=NovaDev, CN=5c85ac1e70674987-9447ceb9271d4fd2-2014-10-20T18:49:44Z
        Subject Public Key Info:
            Public Key Algorithm: rsaEncryption
                Public-Key: (1024 bit)
                Modulus:
                    00:e4:dc:06:e3:bb:b7:ab:2b:2b:72:bd:a3:fb:99:
                    97:4a:7c:8c:35:82:c3:72:22:18:2f:d3:5e:27:8e:
                    f3:a3:cf:65:d6:fa:a2:61:cb:00:77:ab:d9:21:b8:
                    b5:9c:33:26:00:4c:97:15:1d:c9:c8:9d:2d:39:43:
                    99:b5:72:8a:38:8b:e1:17:8d:d8:09:72:ce:b8:a3:
                    83:c2:2d:0b:23:71:d8:da:1c:6d:65:9d:d4:9d:82:
                    37:86:b8:e1:a5:dd:0b:05:61:5d:0d:7a:06:25:83:
                    a7:a7:44:49:ad:95:76:a0:70:5a:d8:4e:e5:e4:15:
                    50:da:0d:a6:3a:c3:87:fe:17
                Exponent: 65537 (0x10001)
    Signature Algorithm: md5WithRSAEncryption
         90:51:f9:dd:5c:ae:0b:d4:a8:32:f7:d4:9b:95:c1:b3:e5:b5:
         36:7a:66:e3:6d:13:69:1b:db:d7:7a:33:07:0b:f0:d9:c3:2e:
         ac:18:99:f2:be:76:d2:5d:ad:90:44:64:55:f8:56:e1:31:6b:
         9a:eb:11:77:02:f6:67:e7:33:3b:e3:13:48:c4:4f:87:8e:5a:
         a8:68:56:ed:61:4b:a0:e9:41:31:35:38:fe:12:f8:af:88:1b:
         c0:27:2e:10:15:6b:a9:e4:ce:28:ad:18:6c:b5:6c:df:92:51:
         af:fe:5b:47:b9:7a:e3:f8:1e:58:c0:68:e4:32:5f:2d:ce:92:
         08:51
-----BEGIN CERTIFICATE-----
MIICRzCCAbACAREwDQYJKoZIhvcNAQEEBQAwTjESMBAGA1UEChMJTk9WQSBST09U
MRYwFAYDVQQHEw1Nb3VudGFpbiBWaWV3MRMwEQYDVQQIEwpDYWxpZm9ybmlhMQsw
CQYDVQQGEwJVUzAeFw0xNDEwMjAxODQ5NDRaFw0xNTEwMjAxODQ5NDRaMIGJMQsw
CQYDVQQGEwJVUzETMBEGA1UECAwKQ2FsaWZvcm5pYTESMBAGA1UECgwJT3BlblN0
YWNrMRAwDgYDVQQLDAdOb3ZhRGV2MT8wPQYDVQQDDDY1Yzg1YWMxZTcwNjc0OTg3
LTk0NDdjZWI5MjcxZDRmZDItMjAxNC0xMC0yMFQxODo0OTo0NFowgZ8wDQYJKoZI
hvcNAQEBBQADgY0AMIGJAoGBAOTcBuO7t6srK3K9o/uZl0p8jDWCw3IiGC/TXieO
86PPZdb6omHLAHer2SG4tZwzJgBMlxUdycidLTlDmbVyijiL4ReN2Alyzrijg8It
CyNx2NocbWWd1J2CN4a44aXdCwVhXQ16BiWDp6dESa2VdqBwWthO5eQVUNoNpjrD
h/4XAgMBAAEwDQYJKoZIhvcNAQEEBQADgYEAkFH53VyuC9SoMvfUm5XBs+W1Nnpm
420TaRvb13ozBwvw2cMurBiZ8r520l2tkERkVfhW4TFrmusRdwL2Z+czO+MTSMRP
h45aqGhW7WFLoOlBMTU4/hL4r4gbwCcuEBVrqeTOKK0YbLVs35JRr/5bR7l64/ge
WMBo5DJfLc6SCFE=
-----END CERTIFICATE-----
