Certificate:
    Data:
        Version: 1 (0x0)
        Serial Number: 19 (0x13)
    Signature Algorithm: md5WithRSAEncryption
        Issuer: O=NOVA ROOT, L=Mountain View, ST=California, C=US
        Validity
            Not Before: Oct 20 18:49:49 2014 GMT
            Not After : Oct 20 18:49:49 2015 GMT
        Subject: C=US, ST=California, O=OpenStack, OU=NovaDev, CN=6dbf5f1aaf6e467c-c7f27bbd016f42f7-2014-10-20T18:49:49Z
        Subject Public Key Info:
            Public Key Algorithm: rsaEncryption
                Public-Key: (1024 bit)
                Modulus:
                    00:bc:1e:72:a1:81:0f:7f:e1:1d:c9:bc:21:88:b4:
                    21:e0:bd:5d:0c:e2:c1:e8:95:3c:ba:75:f0:bf:7a:
                    84:a1:de:57:c9:56:90:21:96:d2:f6:e0:af:bf:7b:
                    4e:84:d2:5b:1f:6e:b0:5f:56:ad:4e:bf:06:84:97:
                    14:c0:7e:20:b7:20:de:ba:bd:21:47:0f:27:1c:30:
                    47:ce:3d:d0:65:a9:40:17:c9:b1:f0:55:0f:27:d5:
                    a5:b4:f9:5a:97:78:d9:37:7b:c2:a3:c3:ea:0a:da:
                    3e:69:e9:de:01:0c:2c:78:47:e1:e5:ee:59:70:52:
                    e3:e6:27:e5:26:e8:94:04:1d
                Exponent: 65537 (0x10001)
    Signature Algorithm: md5WithRSAEncryption
         ae:d0:1f:da:40:b2:13:52:74:65:45:41:df:94:e3:fc:6c:36:
         1e:67:f7:8e:6f:2b:7f:69:ec:98:ec:86:9c:9c:67:d5:51:38:
         84:39:83:07:a1:12:ee:97:97:c9:e5:65:32:65:3a:5d:bc:f2:
         63:87:a9:1c:6b:90:06:40:a8:cb:25:66:50:77:37:ca:1d:fe:
         62:f5:07:58:97:6c:b2:1c:14:19:a8:fc:08:35:0a:95:eb:17:
         39:5c:f2:be:89:07:0e:23:19:9f:8f:4c:f5:24:8a:6b:db:3d:
         c1:17:07:01:73:39:e0:11:29:02:e4:72:ac:77:81:f8:77:4c:
         d2:0e
-----BEGIN CERTIFICATE-----
MIICRzCCAbACARMwDQYJKoZIhvcNAQEEBQAwTjESMBAGA1UEChMJTk9WQSBST09U
MRYwFAYDVQQHEw1Nb3VudGFpbiBWaWV3MRMwEQYDVQQIEwpDYWxpZm9ybmlhMQsw
CQYDVQQGEwJVUzAeFw0xNDEwMjAxODQ5NDlaFw0xNTEwMjAxODQ5NDlaMIGJMQsw
CQYDVQQGEwJVUzETMBEGA1UECAwKQ2FsaWZvcm5pYTESMBAGA1UECgwJT3BlblN0
YWNrMRAwDgYDVQQLDAdOb3ZhRGV2MT8wPQYDVQQDDDY2ZGJmNWYxYWFmNmU0Njdj
LWM3ZjI3YmJkMDE2ZjQyZjctMjAxNC0xMC0yMFQxODo0OTo0OVowgZ8wDQYJKoZI
hvcNAQEBBQADgY0AMIGJAoGBALwecqGBD3/hHcm8IYi0IeC9XQziweiVPLp18L96
hKHeV8lWkCGW0vbgr797ToTSWx9usF9WrU6/BoSXFMB+ILcg3rq9IUcPJxwwR849
0GWpQBfJsfBVDyfVpbT5Wpd42Td7wqPD6graPmnp3gEMLHhH4eXuWXBS4+Yn5Sbo
lAQdAgMBAAEwDQYJKoZIhvcNAQEEBQADgYEArtAf2kCyE1J0ZUVB35Tj/Gw2Hmf3
jm8rf2nsmOyGnJxn1VE4hDmDB6ES7peXyeVlMmU6XbzyY4epHGuQBkCoyyVmUHc3
yh3+YvUHWJdsshwUGaj8CDUKlesXOVzyvokHDiMZn49M9SSKa9s9wRcHAXM54BEp
AuRyrHeB+HdM0g4=
-----END CERTIFICATE-----
