Certificate:
    Data:
        Version: 1 (0x0)
        Serial Number: 20 (0x14)
    Signature Algorithm: md5WithRSAEncryption
        Issuer: O=NOVA ROOT, L=Mountain View, ST=California, C=US
        Validity
            Not Before: Oct 20 18:49:52 2014 GMT
            Not After : Oct 20 18:49:52 2015 GMT
        Subject: C=US, ST=California, O=OpenStack, OU=NovaDev, CN=06e0c285aada4632-c7f27bbd016f42f7-2014-10-20T18:49:52Z
        Subject Public Key Info:
            Public Key Algorithm: rsaEncryption
                Public-Key: (1024 bit)
                Modulus:
                    00:c0:7e:ea:61:d3:36:2d:49:77:5b:20:98:97:f7:
                    69:e9:12:b0:8c:93:96:6e:f6:31:4e:1e:98:c0:34:
                    9e:d7:6b:81:31:27:6b:43:0b:71:fe:e3:ff:94:11:
                    1c:0c:55:e9:24:ed:2a:df:d8:8f:5d:45:0f:3a:80:
                    cf:e8:1f:f2:c4:42:be:50:ba:54:84:7f:15:5b:8d:
                    30:f0:48:ac:09:ed:7f:8a:d5:61:61:1b:90:57:c1:
                    1e:d0:9d:a2:07:d8:62:64:cb:67:0c:36:1d:eb:72:
                    eb:3a:17:3c:5a:44:41:1f:1a:de:28:40:95:dd:36:
                    1a:b5:ac:b5:52:6c:c1:72:81
                Exponent: 65537 (0x10001)
    Signature Algorithm: md5WithRSAEncryption
         cc:af:2e:7d:33:28:30:3e:90:0b:a2:6b:97:56:5e:36:be:46:
         df:86:ac:ba:2c:47:b2:e9:71:97:44:6a:75:7f:f6:49:3a:b8:
         01:c4:2f:cf:ad:4e:a5:3a:58:36:62:a0:a7:63:30:20:36:97:
         5c:67:b8:15:89:39:7b:c5:c5:c5:18:6d:66:e6:c7:6a:b4:2a:
         a1:0a:83:ba:af:d8:28:bf:08:4f:ea:0c:e1:89:ed:ab:bb:0e:
         ff:31:23:9a:9f:33:2b:2f:ce:77:59:ae:61:3b:3c:27:d8:99:
         b6:ab:15:08:98:1d:07:2c:96:3a:92:de:fc:a4:5b:c7:f6:c5:
         62:02
-----BEGIN CERTIFICATE-----
MIICRzCCAbACARQwDQYJKoZIhvcNAQEEBQAwTjESMBAGA1UEChMJTk9WQSBST09U
MRYwFAYDVQQHEw1Nb3VudGFpbiBWaWV3MRMwEQYDVQQIEwpDYWxpZm9ybmlhMQsw
CQYDVQQGEwJVUzAeFw0xNDEwMjAxODQ5NTJaFw0xNTEwMjAxODQ5NTJaMIGJMQsw
CQYDVQQGEwJVUzETMBEGA1UECAwKQ2FsaWZvcm5pYTESMBAGA1UECgwJT3BlblN0
YWNrMRAwDgYDVQQLDAdOb3ZhRGV2MT8wPQYDVQQDDDYwNmUwYzI4NWFhZGE0NjMy
LWM3ZjI3YmJkMDE2ZjQyZjctMjAxNC0xMC0yMFQxODo0OTo1MlowgZ8wDQYJKoZI
hvcNAQEBBQADgY0AMIGJAoGBAMB+6mHTNi1Jd1sgmJf3aekSsIyTlm72MU4emMA0
ntdrgTEna0MLcf7j/5QRHAxV6STtKt/Yj11FDzqAz+gf8sRCvlC6VIR/FVuNMPBI
rAntf4rVYWEbkFfBHtCdogfYYmTLZww2Hety6zoXPFpEQR8a3ihAld02GrWstVJs
wXKBAgMBAAEwDQYJKoZIhvcNAQEEBQADgYEAzK8ufTMoMD6QC6Jrl1ZeNr5G34as
uixHsulxl0RqdX/2STq4AcQvz61OpTpYNmKgp2MwIDaXXGe4FYk5e8XFxRhtZubH
arQqoQqDuq/YKL8IT+oM4Yntq7sO/zEjmp8zKy/Od1muYTs8J9iZtqsVCJgdByyW
OpLe/KRbx/bFYgI=
-----END CERTIFICATE-----
